target datalayout = "e-m:e-p270:32:32-p271:32:32-p272:64:64-i64:64-i128:128-f80:128-n8:16:32:64-S128"
target triple = "x86_64-pc-linux-gnu"

%struct.AVFilterContext = type { ptr, ptr, ptr, ptr, ptr, i32, ptr, ptr, i32, ptr, ptr, i32, i32, ptr, ptr, ptr, ptr, i32, ptr, i32, i32 }
%struct.LUT2Context = type { ptr, %struct.FFFrameSync, i32, [4 x ptr], [4 x ptr], [6 x double], [4 x ptr], [4 x i32], [4 x i32], [4 x i32], [4 x i32], [4 x i32], [4 x i32], i32, i32, i32, i32, i32, i32, i32, ptr, ptr }
%struct.FFFrameSync = type { ptr, ptr, i32, %struct.AVRational, i64, ptr, ptr, i32, i32, i8, i8, ptr, i32, i32, i32, i32 }
%struct.AVRational = type { i32, i32 }
%struct.AVFilterFormatsConfig = type { ptr, ptr, ptr, ptr, ptr }
%struct.AVFilterLink = type { ptr, ptr, ptr, ptr, i32, i32, i32, i32, %struct.AVRational, i32, i32, i32, %struct.AVChannelLayout, %struct.AVRational, ptr, i32, %struct.AVFilterFormatsConfig, %struct.AVFilterFormatsConfig }
%struct.AVChannelLayout = type { i32, i32, %union.anon.1, ptr }
%union.anon.1 = type { i64 }
%struct.AVPixFmtDescriptor = type { ptr, i8, i8, i8, i64, [4 x %struct.AVComponentDescriptor], ptr }
%struct.AVComponentDescriptor = type { i32, i32, i32, i32, i32 }

; Function Attrs: nounwind uwtable
define internal i32 @config_inputy(ptr noundef %0) #0 {
  %2 = alloca ptr, align 8
  %3 = alloca ptr, align 8
  %4 = alloca ptr, align 8
  %5 = alloca ptr, align 8
  %6 = alloca i32, align 4
  %7 = alloca i32, align 4
  store ptr %0, ptr %2, align 8, !tbaa !44
  call void @llvm.lifetime.start.p0(i64 8, ptr %3) #12
  %8 = load ptr, ptr %2, align 8, !tbaa !44
  %9 = getelementptr inbounds nuw %struct.AVFilterLink, ptr %8, i32 0, i32 2
  %10 = load ptr, ptr %9, align 8, !tbaa !49
  store ptr %10, ptr %3, align 8, !tbaa !4
  call void @llvm.lifetime.start.p0(i64 8, ptr %4) #12
  %11 = load ptr, ptr %3, align 8, !tbaa !4
  %12 = getelementptr inbounds nuw %struct.AVFilterContext, ptr %11, i32 0, i32 9
  %13 = load ptr, ptr %12, align 8, !tbaa !9
  store ptr %13, ptr %4, align 8, !tbaa !22
  call void @llvm.lifetime.start.p0(i64 8, ptr %5) #12
  %14 = load ptr, ptr %2, align 8, !tbaa !44
  %15 = getelementptr inbounds nuw %struct.AVFilterLink, ptr %14, i32 0, i32 5
  %16 = load i32, ptr %15, align 4, !tbaa !56
  %17 = call ptr @av_pix_fmt_desc_get(i32 noundef %16)
  store ptr %17, ptr %5, align 8, !tbaa !57
  call void @llvm.lifetime.start.p0(i64 4, ptr %6) #12
  %18 = load ptr, ptr %5, align 8, !tbaa !57
  %19 = getelementptr inbounds nuw %struct.AVPixFmtDescriptor, ptr %18, i32 0, i32 2
  %20 = load i8, ptr %19, align 1, !tbaa !59
  %21 = zext i8 %20 to i32
  store i32 %21, ptr %6, align 4, !tbaa !24
  call void @llvm.lifetime.start.p0(i64 4, ptr %7) #12
  %22 = load ptr, ptr %5, align 8, !tbaa !57
  %23 = getelementptr inbounds nuw %struct.AVPixFmtDescriptor, ptr %22, i32 0, i32 3
  %24 = load i8, ptr %23, align 2, !tbaa !61
  %25 = zext i8 %24 to i32
  store i32 %25, ptr %7, align 4, !tbaa !24
  %26 = load ptr, ptr %2, align 8, !tbaa !44
  %27 = getelementptr inbounds nuw %struct.AVFilterLink, ptr %26, i32 0, i32 5
  %28 = load i32, ptr %27, align 4, !tbaa !56
  %29 = call i32 @av_pix_fmt_count_planes(i32 noundef %28)
  %30 = load ptr, ptr %4, align 8, !tbaa !22
  %31 = getelementptr inbounds nuw %struct.LUT2Context, ptr %30, i32 0, i32 14
  store i32 %29, ptr %31, align 4, !tbaa !71
  %32 = load ptr, ptr %5, align 8, !tbaa !57
  %33 = getelementptr inbounds nuw %struct.AVPixFmtDescriptor, ptr %32, i32 0, i32 5
  %34 = getelementptr inbounds [4 x %struct.AVComponentDescriptor], ptr %33, i64 0, i64 0
  %35 = getelementptr inbounds nuw %struct.AVComponentDescriptor, ptr %34, i32 0, i32 4
  %36 = load i32, ptr %35, align 8, !tbaa !67
  %37 = load ptr, ptr %4, align 8, !tbaa !22
  %38 = getelementptr inbounds nuw %struct.LUT2Context, ptr %37, i32 0, i32 18
  store i32 %36, ptr %38, align 4, !tbaa !70
  %39 = load ptr, ptr %4, align 8, !tbaa !22
  %40 = getelementptr inbounds nuw %struct.LUT2Context, ptr %39, i32 0, i32 18
  %41 = load i32, ptr %40, align 4, !tbaa !70
  %42 = sitofp i32 %41 to double
  %43 = load ptr, ptr %4, align 8, !tbaa !22
  %44 = getelementptr inbounds nuw %struct.LUT2Context, ptr %43, i32 0, i32 5
  %45 = getelementptr inbounds [6 x double], ptr %44, i64 0, i64 5
  store double %42, ptr %45, align 8, !tbaa !65
  %46 = load i32, ptr %7, align 4, !tbaa !24
  %47 = call i1 @llvm.is.constant.i32(i32 %46)
  br i1 %47, label %56, label %48

48:                                               ; preds = %1
  %49 = load ptr, ptr %2, align 8, !tbaa !44
  %50 = getelementptr inbounds nuw %struct.AVFilterLink, ptr %49, i32 0, i32 7
  %51 = load i32, ptr %50, align 4, !tbaa !63
  %52 = sub nsw i32 0, %51
  %53 = load i32, ptr %7, align 4, !tbaa !24
  %54 = ashr i32 %52, %53
  %55 = sub nsw i32 0, %54
  br label %66

56:                                               ; preds = %1
  %57 = load ptr, ptr %2, align 8, !tbaa !44
  %58 = getelementptr inbounds nuw %struct.AVFilterLink, ptr %57, i32 0, i32 7
  %59 = load i32, ptr %58, align 4, !tbaa !63
  %60 = load i32, ptr %7, align 4, !tbaa !24
  %61 = shl i32 1, %60
  %62 = add nsw i32 %59, %61
  %63 = sub nsw i32 %62, 1
  %64 = load i32, ptr %7, align 4, !tbaa !24
  %65 = ashr i32 %63, %64
  br label %66

66:                                               ; preds = %56, %48
  %67 = phi i32 [ %55, %48 ], [ %65, %56 ]
  %68 = load ptr, ptr %4, align 8, !tbaa !22
  %69 = getelementptr inbounds nuw %struct.LUT2Context, ptr %68, i32 0, i32 12
  %70 = getelementptr inbounds [4 x i32], ptr %69, i64 0, i64 2
  store i32 %67, ptr %70, align 8, !tbaa !24
  %71 = load ptr, ptr %4, align 8, !tbaa !22
  %72 = getelementptr inbounds nuw %struct.LUT2Context, ptr %71, i32 0, i32 12
  %73 = getelementptr inbounds [4 x i32], ptr %72, i64 0, i64 1
  store i32 %67, ptr %73, align 4, !tbaa !24
  %74 = load ptr, ptr %2, align 8, !tbaa !44
  %75 = getelementptr inbounds nuw %struct.AVFilterLink, ptr %74, i32 0, i32 7
  %76 = load i32, ptr %75, align 4, !tbaa !63
  %77 = load ptr, ptr %4, align 8, !tbaa !22
  %78 = getelementptr inbounds nuw %struct.LUT2Context, ptr %77, i32 0, i32 12
  %79 = getelementptr inbounds [4 x i32], ptr %78, i64 0, i64 3
  store i32 %76, ptr %79, align 4, !tbaa !24
  %80 = load ptr, ptr %4, align 8, !tbaa !22
  %81 = getelementptr inbounds nuw %struct.LUT2Context, ptr %80, i32 0, i32 12
  %82 = getelementptr inbounds [4 x i32], ptr %81, i64 0, i64 0
  store i32 %76, ptr %82, align 8, !tbaa !24
  %83 = load i32, ptr %6, align 4, !tbaa !24
  %84 = call i1 @llvm.is.constant.i32(i32 %83)
  br i1 %84, label %93, label %85

85:                                               ; preds = %66
  %86 = load ptr, ptr %2, align 8, !tbaa !44
  %87 = getelementptr inbounds nuw %struct.AVFilterLink, ptr %86, i32 0, i32 6
  %88 = load i32, ptr %87, align 8, !tbaa !64
  %89 = sub nsw i32 0, %88
  %90 = load i32, ptr %6, align 4, !tbaa !24
  %91 = ashr i32 %89, %90
  %92 = sub nsw i32 0, %91
  br label %103

93:                                               ; preds = %66
  %94 = load ptr, ptr %2, align 8, !tbaa !44
  %95 = getelementptr inbounds nuw %struct.AVFilterLink, ptr %94, i32 0, i32 6
  %96 = load i32, ptr %95, align 8, !tbaa !64
  %97 = load i32, ptr %6, align 4, !tbaa !24
  %98 = shl i32 1, %97
  %99 = add nsw i32 %96, %98
  %100 = sub nsw i32 %99, 1
  %101 = load i32, ptr %6, align 4, !tbaa !24
  %102 = ashr i32 %100, %101
  br label %103

103:                                              ; preds = %93, %85
  %104 = phi i32 [ %92, %85 ], [ %102, %93 ]
  %105 = load ptr, ptr %4, align 8, !tbaa !22
  %106 = getelementptr inbounds nuw %struct.LUT2Context, ptr %105, i32 0, i32 11
  %107 = getelementptr inbounds [4 x i32], ptr %106, i64 0, i64 2
  store i32 %104, ptr %107, align 8, !tbaa !24
  %108 = load ptr, ptr %4, align 8, !tbaa !22
  %109 = getelementptr inbounds nuw %struct.LUT2Context, ptr %108, i32 0, i32 11
  %110 = getelementptr inbounds [4 x i32], ptr %109, i64 0, i64 1
  store i32 %104, ptr %110, align 4, !tbaa !24
  %111 = load ptr, ptr %2, align 8, !tbaa !44
  %112 = getelementptr inbounds nuw %struct.AVFilterLink, ptr %111, i32 0, i32 6
  %113 = load i32, ptr %112, align 8, !tbaa !64
  %114 = load ptr, ptr %4, align 8, !tbaa !22
  %115 = getelementptr inbounds nuw %struct.LUT2Context, ptr %114, i32 0, i32 11
  %116 = getelementptr inbounds [4 x i32], ptr %115, i64 0, i64 3
  store i32 %113, ptr %116, align 4, !tbaa !24
  %117 = load ptr, ptr %4, align 8, !tbaa !22
  %118 = getelementptr inbounds nuw %struct.LUT2Context, ptr %117, i32 0, i32 11
  %119 = getelementptr inbounds [4 x i32], ptr %118, i64 0, i64 0
  store i32 %113, ptr %119, align 8, !tbaa !24
  call void @llvm.lifetime.end.p0(i64 4, ptr %7) #12
  call void @llvm.lifetime.end.p0(i64 4, ptr %6) #12
  call void @llvm.lifetime.end.p0(i64 8, ptr %5) #12
  call void @llvm.lifetime.end.p0(i64 8, ptr %4) #12
  call void @llvm.lifetime.end.p0(i64 8, ptr %3) #12
  ret i32 0
}