; Function Attrs: nounwind uwtable
define internal noundef i32 @config_inputy(ptr noundef readonly captures(none) %0) #0 {
  %2 = getelementptr inbounds nuw i8, ptr %0, i64 16
  %3 = load ptr, ptr %2, align 8, !tbaa !41
  %4 = getelementptr inbounds nuw i8, ptr %3, i64 72
  %5 = load ptr, ptr %4, align 8, !tbaa !4
  %6 = getelementptr inbounds nuw i8, ptr %0, i64 36
  %7 = load i32, ptr %6, align 4, !tbaa !48
  %8 = tail call ptr @av_pix_fmt_desc_get(i32 noundef %7) #11
  %9 = getelementptr inbounds nuw i8, ptr %8, i64 9
  %10 = load i8, ptr %9, align 1, !tbaa !49
  %11 = getelementptr inbounds nuw i8, ptr %8, i64 10
  %12 = load i8, ptr %11, align 2, !tbaa !51
  %13 = load i32, ptr %6, align 4, !tbaa !48
  %14 = tail call i32 @av_pix_fmt_count_planes(i32 noundef %13) #11
  %15 = getelementptr inbounds nuw i8, ptr %5, i64 356
  store i32 %14, ptr %15, align 4, !tbaa !62
  %16 = getelementptr inbounds nuw i8, ptr %8, i64 40
  %17 = load i32, ptr %16, align 8, !tbaa !58
  %18 = getelementptr inbounds nuw i8, ptr %5, i64 372
  store i32 %17, ptr %18, align 4, !tbaa !61
  %19 = sitofp i32 %17 to double
  %20 = getelementptr inbounds nuw i8, ptr %5, i64 216
  store double %19, ptr %20, align 8, !tbaa !56
  %21 = getelementptr inbounds nuw i8, ptr %0, i64 44
  %22 = load i32, ptr %21, align 4, !tbaa !53
  %23 = sub nsw i32 0, %22
  %24 = zext nneg i8 %12 to i32
  %25 = ashr i32 %23, %24
  %26 = sub nsw i32 0, %25
  %27 = getelementptr inbounds nuw i8, ptr %5, i64 336
  %28 = getelementptr inbounds nuw i8, ptr %5, i64 344
  store i32 %26, ptr %28, align 8, !tbaa !54
  %29 = getelementptr inbounds nuw i8, ptr %5, i64 340
  store i32 %26, ptr %29, align 4, !tbaa !54
  %30 = getelementptr inbounds nuw i8, ptr %0, i64 44
  %31 = load i32, ptr %30, align 4, !tbaa !53
  %32 = getelementptr inbounds nuw i8, ptr %5, i64 348
  store i32 %31, ptr %32, align 4, !tbaa !54
  store i32 %31, ptr %27, align 8, !tbaa !54
  %33 = getelementptr inbounds nuw i8, ptr %0, i64 40
  %34 = load i32, ptr %33, align 8, !tbaa !55
  %35 = sub nsw i32 0, %34
  %36 = zext nneg i8 %10 to i32
  %37 = ashr i32 %35, %36
  %38 = sub nsw i32 0, %37
  %39 = getelementptr inbounds nuw i8, ptr %5, i64 320
  %40 = getelementptr inbounds nuw i8, ptr %5, i64 328
  store i32 %38, ptr %40, align 8, !tbaa !54
  %41 = getelementptr inbounds nuw i8, ptr %5, i64 324
  store i32 %38, ptr %41, align 4, !tbaa !54
  %42 = getelementptr inbounds nuw i8, ptr %0, i64 40
  %43 = load i32, ptr %42, align 8, !tbaa !55
  %44 = getelementptr inbounds nuw i8, ptr %5, i64 332
  store i32 %43, ptr %44, align 4, !tbaa !54
  store i32 %43, ptr %39, align 8, !tbaa !54
  ret i32 0
}